target datalayout = "e-m:e-p270:32:32-p271:32:32-p272:64:64-i64:64-i128:128-f80:128-n8:16:32:64-S128"
target triple = "x86_64-pc-linux-gnu"

%struct._address = type { i32, i32, ptr, ptr }
%struct.lbttcp_transport_conv_data_t = type { ptr, ptr }
%struct.lbttcp_transport_t = type { %struct._address, i16, i32, i64, i32, ptr }

@lbttcp_null_address = internal constant %struct._address zeroinitializer, align 8
@proto_lbttcp = internal global i32 0, align 4

; Function Attrs: null_pointer_is_valid sspstrong uwtable
define hidden void @lbttcp_transport_sid_add(ptr noundef %0, i16 noundef zeroext %1, i32 noundef %2, i32 noundef %3) #0 {
  %5 = alloca ptr, align 8
  %6 = alloca i16, align 2
  %7 = alloca i32, align 4
  %8 = alloca i32, align 4
  %9 = alloca ptr, align 8
  %10 = alloca ptr, align 8
  %11 = alloca ptr, align 8
  store ptr %0, ptr %5, align 8
  store i16 %1, ptr %6, align 2
  store i32 %2, ptr %7, align 4
  store i32 %3, ptr %8, align 4
  call void @llvm.lifetime.start.p0(i64 8, ptr %9) #9
  store ptr null, ptr %9, align 8
  call void @llvm.lifetime.start.p0(i64 8, ptr %10) #9
  store ptr null, ptr %10, align 8
  call void @llvm.lifetime.start.p0(i64 8, ptr %11) #9
  store ptr null, ptr %11, align 8
  %12 = load i32, ptr %7, align 4
  %13 = load ptr, ptr %5, align 8
  %14 = load i16, ptr %6, align 2
  %15 = zext i16 %14 to i32
  %16 = call ptr @find_conversation(i32 noundef %12, ptr noundef %13, ptr noundef @lbttcp_null_address, i32 noundef 2, i32 noundef %15, i32 noundef 0, i32 noundef 0)
  store ptr %16, ptr %9, align 8
  %17 = load ptr, ptr %9, align 8
  %18 = icmp eq ptr %17, null
  br i1 %18, label %19, label %25

19:                                               ; preds = %4
  %20 = load i32, ptr %7, align 4
  %21 = load ptr, ptr %5, align 8
  %22 = load i16, ptr %6, align 2
  %23 = zext i16 %22 to i32
  %24 = call ptr @conversation_new(i32 noundef %20, ptr noundef %21, ptr noundef @lbttcp_null_address, i32 noundef 2, i32 noundef %23, i32 noundef 0, i32 noundef 0)
  store ptr %24, ptr %9, align 8
  br label %25

25:                                               ; preds = %19, %4
  %26 = load ptr, ptr %9, align 8
  %27 = load i32, ptr @proto_lbttcp, align 4
  %28 = call ptr @conversation_get_proto_data(ptr noundef %26, i32 noundef %27)
  store ptr %28, ptr %10, align 8
  %29 = load ptr, ptr %10, align 8
  %30 = icmp eq ptr %29, null
  br i1 %30, label %31, label %45

31:                                               ; preds = %25
  %32 = call ptr @wmem_file_scope()
  %33 = call noalias ptr @wmem_alloc(ptr noundef %32, i64 noundef 16) #10
  store ptr %33, ptr %10, align 8
  %34 = call ptr @wmem_file_scope()
  %35 = call noalias ptr @wmem_tree_new(ptr noundef %34)
  %36 = load ptr, ptr %10, align 8
  %37 = getelementptr inbounds nuw %struct.lbttcp_transport_conv_data_t, ptr %36, i32 0, i32 0
  store ptr %35, ptr %37, align 8
  %38 = call ptr @wmem_file_scope()
  %39 = call noalias ptr @wmem_tree_new(ptr noundef %38)
  %40 = load ptr, ptr %10, align 8
  %41 = getelementptr inbounds nuw %struct.lbttcp_transport_conv_data_t, ptr %40, i32 0, i32 1
  store ptr %39, ptr %41, align 8
  %42 = load ptr, ptr %9, align 8
  %43 = load i32, ptr @proto_lbttcp, align 4
  %44 = load ptr, ptr %10, align 8
  call void @conversation_add_proto_data(ptr noundef %42, i32 noundef %43, ptr noundef %44)
  br label %45

45:                                               ; preds = %31, %25
  %46 = load ptr, ptr %10, align 8
  %47 = getelementptr inbounds nuw %struct.lbttcp_transport_conv_data_t, ptr %46, i32 0, i32 0
  %48 = load ptr, ptr %47, align 8
  %49 = load i32, ptr %7, align 4
  %50 = call ptr @wmem_tree_lookup32_le(ptr noundef %48, i32 noundef %49)
  store ptr %50, ptr %11, align 8
  %51 = load ptr, ptr %11, align 8
  %52 = icmp ne ptr %51, null
  br i1 %52, label %53, label %61

53:                                               ; preds = %45
  %54 = load ptr, ptr %11, align 8
  %55 = getelementptr inbounds nuw %struct.lbttcp_transport_t, ptr %54, i32 0, i32 2
  %56 = load i32, ptr %55, align 4
  %57 = load i32, ptr %8, align 4
  %58 = icmp ne i32 %56, %57
  br i1 %58, label %59, label %60

59:                                               ; preds = %53
  store ptr null, ptr %11, align 8
  br label %60

60:                                               ; preds = %59, %53
  br label %61

61:                                               ; preds = %60, %45
  %62 = load ptr, ptr %11, align 8
  %63 = icmp eq ptr %62, null
  br i1 %63, label %64, label %79

64:                                               ; preds = %61
  %65 = load ptr, ptr %5, align 8
  %66 = load i16, ptr %6, align 2
  %67 = load i32, ptr %8, align 4
  %68 = call ptr @lbttcp_transport_create(ptr noundef %65, i16 noundef zeroext %66, i32 noundef %67)
  store ptr %68, ptr %11, align 8
  %69 = load ptr, ptr %10, align 8
  %70 = getelementptr inbounds nuw %struct.lbttcp_transport_conv_data_t, ptr %69, i32 0, i32 1
  %71 = load ptr, ptr %70, align 8
  %72 = load i32, ptr %8, align 4
  %73 = load ptr, ptr %11, align 8
  call void @wmem_tree_insert32(ptr noundef %71, i32 noundef %72, ptr noundef %73)
  %74 = load ptr, ptr %10, align 8
  %75 = getelementptr inbounds nuw %struct.lbttcp_transport_conv_data_t, ptr %74, i32 0, i32 0
  %76 = load ptr, ptr %75, align 8
  %77 = load i32, ptr %7, align 4
  %78 = load ptr, ptr %11, align 8
  call void @wmem_tree_insert32(ptr noundef %76, i32 noundef %77, ptr noundef %78)
  br label %79

79:                                               ; preds = %64, %61
  call void @llvm.lifetime.end.p0(i64 8, ptr %11) #9
  call void @llvm.lifetime.end.p0(i64 8, ptr %10) #9
  call void @llvm.lifetime.end.p0(i64 8, ptr %9) #9
  ret void
}